	.file	"main.c"
__SP_H__ = 0x3e
__SP_L__ = 0x3d
__SREG__ = 0x3f
__tmp_reg__ = 0
__zero_reg__ = 1
	.text
.Ltext0:
	.cfi_sections	.debug_frame
	.section	.text.init_timer_zeitlicher_ablauf,"ax",@progbits
.global	init_timer_zeitlicher_ablauf
	.type	init_timer_zeitlicher_ablauf, @function
init_timer_zeitlicher_ablauf:
.LFB12:
	.file 1 ".././main.c"
	.loc 1 183 0
	.cfi_startproc
/* prologue: function */
/* frame size = 0 */
/* stack size = 0 */
.L__stack_usage = 0
	.loc 1 186 0
	ldi r30,lo8(-111)
	ldi r31,0
	ld r24,Z
	.loc 1 186 0
	ori r24,lo8(1)
	st Z,r24
	.loc 1 187 0
	ld r24,Z
	.loc 1 187 0
	ori r24,lo8(2)
	st Z,r24
	.loc 1 188 0
	ld r24,Z
	.loc 1 188 0
	andi r24,lo8(-5)
	st Z,r24
	.loc 1 190 0
	ldi r30,lo8(113)
	ldi r31,0
	ld r24,Z
	.loc 1 190 0
	ori r24,lo8(2)
	st Z,r24
	.loc 1 192 0
	ldi r24,lo8(-60)
	ldi r25,lo8(9)
	sts 152+1,r25
	sts 152,r24
	ret
	.cfi_endproc
.LFE12:
	.size	init_timer_zeitlicher_ablauf, .-init_timer_zeitlicher_ablauf
	.section	.text.main,"ax",@progbits
.global	main
	.type	main, @function
main:
.LFB11:
	.loc 1 53 0
	.cfi_startproc
/* prologue: function */
/* frame size = 0 */
/* stack size = 0 */
.L__stack_usage = 0
	.loc 1 55 0
	ldi r30,lo8(97)
	ldi r31,0
	ldi r24,lo8(-128)
	st Z,r24
	.loc 1 56 0
	st Z,__zero_reg__
	.loc 1 58 0
	in r24,0x35
	.loc 1 58 0
	ori r24,lo8(-128)
	out 0x35,r24
	.loc 1 59 0
	in r24,0x35
	.loc 1 59 0
	ori r24,lo8(-128)
	out 0x35,r24
	.loc 1 62 0
	sbi 0x7,7
	.loc 1 63 0
	sbi 0x7,6
	.loc 1 64 0
	sbi 0x4,6
	.loc 1 65 0
	sbi 0x4,5
	.loc 1 66 0
	sbi 0xa,7
	.loc 1 67 0
	sbi 0xa,6
	.loc 1 70 0
	cbi 0x4,1
	.loc 1 71 0
	cbi 0x4,2
	.loc 1 72 0
	cbi 0x4,3
	.loc 1 73 0
	cbi 0x5,1
	.loc 1 74 0
	cbi 0x5,2
	.loc 1 75 0
	cbi 0x5,3
	.loc 1 78 0
	cbi 0x4,4
	.loc 1 79 0
	sbi 0x5,4
	.loc 1 82 0
	sbi 0xd,6
	.loc 1 83 0
	cbi 0xe,6
	.loc 1 86 0
	cbi 0x10,0
	.loc 1 89 0
	sbi 0x4,0
	.loc 1 90 0
	sbi 0x10,1
	.loc 1 91 0
	sbi 0x10,7
	.loc 1 92 0
	sbi 0x10,6
	.loc 1 93 0
	sbi 0x10,5
	.loc 1 94 0
	sbi 0x10,4
	.loc 1 97 0
	sbi 0xb,2
	.loc 1 100 0
	sbi 0xa,4
	.loc 1 103 0
	cbi 0xa,0
	.loc 1 104 0
	sbi 0xb,0
	.loc 1 108 0
	sbi 0x4,7
	.loc 1 111 0
	call Init_Pinchange
.LVL0:
	.loc 1 113 0
	call Init_PWM
.LVL1:
	.loc 1 115 0
	call Init_ADC
.LVL2:
	.loc 1 117 0
	call Init_Timer1
.LVL3:
	.loc 1 119 0
	call init_usart
.LVL4:
	.loc 1 120 0
	call init_transmission_timer
.LVL5:
	.loc 1 123 0
	call init_timer_zeitlicher_ablauf
.LVL6:
	.loc 1 126 0
	call LCD_init
.LVL7:
	.loc 1 127 0
	ldi r24,lo8(12)
	call LCD_cmd
.LVL8:
	.loc 1 129 0
	call Hallsensoren_abfragen
.LVL9:
	.loc 1 131 0
/* #APP */
 ;  131 ".././main.c" 1
	sei
 ;  0 "" 2
	.loc 1 133 0
/* #NOAPP */
	call LCD_Display
.LVL10:
	.loc 1 135 0
	call adc_abfrage
.LVL11:
	sts adc_wert_anfangsbedinung,r24
.L3:
	.loc 1 139 0 discriminator 1
	call adc_abfrage
.LVL12:
	sts adc_wert_anfangsbedinung,r24
	.loc 1 140 0 discriminator 1
	cpse r24,__zero_reg__
	rjmp .L3
.LVL13:
.LBB4:
.LBB5:
	.file 2 "c:\\program files (x86)\\atmel\\studio\\7.0\\toolchain\\avr8\\avr8-gnu-toolchain\\avr\\include\\util\\delay.h"
	.loc 2 187 0
	ldi r18,lo8(6399999)
	ldi r24,hi8(6399999)
	ldi r25,hlo8(6399999)
1:	subi r18,1
	sbci r24,0
	sbci r25,0
	brne 1b
	rjmp .
	nop
.LVL14:
.LBE5:
.LBE4:
	.loc 1 144 0
	cbi 0xe,6
	.loc 1 147 0
	call preset_drehzahl_gesch
.LVL15:
	.loc 1 149 0
	sts zeitlicher_ablauf,__zero_reg__
.L4:
	.loc 1 153 0
	call kommunikations_daten_mitteln
.LVL16:
	.loc 1 155 0
	lds r24,zeitlicher_ablauf
	cpi r24,lo8(10)
	brlo .L4
	.loc 1 158 0
	call ges_spannung_uebertragung
.LVL17:
	sts ges_spannung_main+1,r25
	sts ges_spannung_main,r24
	.loc 1 160 0
	call geschwindigkeit_berechnung
.LVL18:
	.loc 1 161 0
	lds r24,ges_spannung_main
	lds r25,ges_spannung_main+1
	call akku_ladestand
.LVL19:
	sts ladestand_test,r24
	.loc 1 162 0
	call ladestand_ausgabe
.LVL20:
	.loc 1 164 0
	call temperatur_uebertragung
.LVL21:
	ldi r25,0
	sts nen_test+1,r25
	sts nen_test,r24
	.loc 1 168 0
	call drehzahl_ausgabe
.LVL22:
	.loc 1 171 0
	call geschwindigkeits_ausgabe
.LVL23:
	.loc 1 174 0
	sts zeitlicher_ablauf,__zero_reg__
	rjmp .L4
	.cfi_endproc
.LFE11:
	.size	main, .-main
	.section	.text.__vector_32,"ax",@progbits
.global	__vector_32
	.type	__vector_32, @function
__vector_32:
.LFB13:
	.loc 1 200 0
	.cfi_startproc
	push r1
.LCFI0:
	.cfi_def_cfa_offset 3
	.cfi_offset 1, -2
	push r0
.LCFI1:
	.cfi_def_cfa_offset 4
	.cfi_offset 0, -3
	in r0,__SREG__
	push r0
	clr __zero_reg__
	push r24
.LCFI2:
	.cfi_def_cfa_offset 5
	.cfi_offset 24, -4
/* prologue: Signal */
/* frame size = 0 */
/* stack size = 4 */
.L__stack_usage = 4
	.loc 1 201 0
	sts 148+1,__zero_reg__
	sts 148,__zero_reg__
	.loc 1 204 0
	lds r24,zeitlicher_ablauf
	cpi r24,lo8(25)
	brlo .L9
	.loc 1 207 0
	sts zeitlicher_ablauf,__zero_reg__
.L9:
	.loc 1 210 0
	lds r24,zeitlicher_ablauf
	subi r24,lo8(-(1))
	sts zeitlicher_ablauf,r24
/* epilogue start */
	.loc 1 213 0
	pop r24
	pop r0
	out __SREG__,r0
	pop r0
	pop r1
	reti
	.cfi_endproc
.LFE13:
	.size	__vector_32, .-__vector_32
	.comm	nen_test,2,1
	.comm	adc_wert_anfangsbedinung,1,1
.global	ladestand_test
	.section	.bss.ladestand_test,"aw",@nobits
	.type	ladestand_test, @object
	.size	ladestand_test, 1
ladestand_test:
	.zero	1
	.comm	ges_spannung_main,2,1
.global	zeitlicher_ablauf
	.section	.bss.zeitlicher_ablauf,"aw",@nobits
	.type	zeitlicher_ablauf, @object
	.size	zeitlicher_ablauf, 1
zeitlicher_ablauf:
	.zero	1
	.text
.Letext0:
	.file 3 "c:\\program files (x86)\\atmel\\studio\\7.0\\toolchain\\avr8\\avr8-gnu-toolchain\\avr\\include\\stdint.h"
	.file 4 ".././motoransteuerung.h"
	.file 5 ".././berechnung.h"
	.file 6 ".././kommunikation.h"
	.file 7 ".././lcd.h"
	.file 8 ".././datenverarbeitung.h"